; Function Attrs: mustprogress uwtable
define noundef i32 @_ZN13TextureObject13TextureHeightEm(ptr nocapture noundef nonnull readonly align 8 dereferenceable(48) %0, i64 noundef %1) local_unnamed_addr #5 align 2 {
  %3 = getelementptr inbounds i8, ptr %0, i64 8
  %4 = load ptr, ptr %3, align 8
  %5 = load ptr, ptr %0, align 8
  %6 = ptrtoint ptr %4 to i64
  %7 = ptrtoint ptr %5 to i64
  %8 = sub i64 %6, %7
  %9 = ashr exact i64 %8, 5
  %10 = icmp ugt i64 %9, %1
  br i1 %10, label %12, label %11

11:                                               ; preds = %2
  tail call void @_Z11ensure_failPKcS0_j(ptr noundef nonnull @.str.7, ptr noundef nonnull @.str.2, i32 noundef 114) #20
  unreachable

12:                                               ; preds = %2
  %13 = getelementptr inbounds %struct.TextureImageInfo, ptr %5, i64 %1
  %14 = tail call noundef i32 @_ZNK6QImage6heightEv(ptr noundef nonnull align 8 dereferenceable(32) %13)
  ret i32 %14
}